target datalayout = "e-m:e-p270:32:32-p271:32:32-p272:64:64-i64:64-i128:128-f80:128-n8:16:32:64-S128"
target triple = "x86_64-pc-linux-gnu"

%struct.ggml_backend_registry = type { %"class.std::vector", %"class.std::vector.0" }
%"class.std::vector" = type { %"struct.std::_Vector_base" }
%"struct.std::_Vector_base" = type { %"struct.std::_Vector_base<ggml_backend_reg_entry, std::allocator<ggml_backend_reg_entry>>::_Vector_impl" }
%"struct.std::_Vector_base<ggml_backend_reg_entry, std::allocator<ggml_backend_reg_entry>>::_Vector_impl" = type { %"struct.std::_Vector_base<ggml_backend_reg_entry, std::allocator<ggml_backend_reg_entry>>::_Vector_impl_data" }
%"struct.std::_Vector_base<ggml_backend_reg_entry, std::allocator<ggml_backend_reg_entry>>::_Vector_impl_data" = type { ptr, ptr, ptr }
%"class.std::vector.0" = type { %"struct.std::_Vector_base.1" }
%"struct.std::_Vector_base.1" = type { %"struct.std::_Vector_base<ggml_backend_device *, std::allocator<ggml_backend_device *>>::_Vector_impl" }
%"struct.std::_Vector_base<ggml_backend_device *, std::allocator<ggml_backend_device *>>::_Vector_impl" = type { %"struct.std::_Vector_base<ggml_backend_device *, std::allocator<ggml_backend_device *>>::_Vector_impl_data" }
%"struct.std::_Vector_base<ggml_backend_device *, std::allocator<ggml_backend_device *>>::_Vector_impl_data" = type { ptr, ptr, ptr }

@_ZZL7get_regvE3reg = internal global %struct.ggml_backend_registry zeroinitializer, align 8
@_ZGVZL7get_regvE3reg = internal global i64 0, align 8
@__dso_handle = external hidden global i8

; Function Attrs: mustprogress nounwind uwtable
define linkonce_odr noundef i64 @_ZNKSt6vectorIP19ggml_backend_deviceSaIS1_EE4sizeEv(ptr noundef nonnull align 8 dereferenceable(24) %0) #1 comdat align 2 {
  %2 = alloca ptr, align 8
  store ptr %0, ptr %2, align 8, !tbaa !43
  %3 = load ptr, ptr %2, align 8
  %4 = getelementptr inbounds nuw %"struct.std::_Vector_base.1", ptr %3, i32 0, i32 0
  %5 = getelementptr inbounds nuw %"struct.std::_Vector_base<ggml_backend_device *, std::allocator<ggml_backend_device *>>::_Vector_impl_data", ptr %4, i32 0, i32 1
  %6 = load ptr, ptr %5, align 8, !tbaa !45
  %7 = getelementptr inbounds nuw %"struct.std::_Vector_base.1", ptr %3, i32 0, i32 0
  %8 = getelementptr inbounds nuw %"struct.std::_Vector_base<ggml_backend_device *, std::allocator<ggml_backend_device *>>::_Vector_impl_data", ptr %7, i32 0, i32 0
  %9 = load ptr, ptr %8, align 8, !tbaa !48
  %10 = ptrtoint ptr %6 to i64
  %11 = ptrtoint ptr %9 to i64
  %12 = sub i64 %10, %11
  %13 = sdiv exact i64 %12, 8
  ret i64 %13
}

; Function Attrs: mustprogress uwtable
define internal noundef nonnull align 8 dereferenceable(48) ptr @_ZL7get_regv() #0 personality ptr @__gxx_personality_v0 {
  %1 = alloca ptr, align 8
  %2 = alloca i32, align 4
  %3 = load atomic i8, ptr @_ZGVZL7get_regvE3reg acquire, align 8
  %4 = icmp eq i8 %3, 0
  br i1 %4, label %5, label %11, !prof !8

5:                                                ; preds = %0
  %6 = call i32 @__cxa_guard_acquire(ptr @_ZGVZL7get_regvE3reg) #6
  %7 = icmp ne i32 %6, 0
  br i1 %7, label %8, label %11

8:                                                ; preds = %5
  invoke void @_ZN21ggml_backend_registryC2Ev(ptr noundef nonnull align 8 dereferenceable(48) @_ZZL7get_regvE3reg)
          to label %9 unwind label %12

9:                                                ; preds = %8
  %10 = call i32 @__cxa_atexit(ptr @_ZN21ggml_backend_registryD2Ev, ptr @_ZZL7get_regvE3reg, ptr @__dso_handle) #6
  call void @__cxa_guard_release(ptr @_ZGVZL7get_regvE3reg) #6
  br label %11

11:                                               ; preds = %9, %5, %0
  ret ptr @_ZZL7get_regvE3reg

12:                                               ; preds = %8
  %13 = landingpad { ptr, i32 }
          cleanup
  %14 = extractvalue { ptr, i32 } %13, 0
  store ptr %14, ptr %1, align 8
  %15 = extractvalue { ptr, i32 } %13, 1
  store i32 %15, ptr %2, align 4
  call void @__cxa_guard_abort(ptr @_ZGVZL7get_regvE3reg) #6
  br label %16

16:                                               ; preds = %12
  %17 = load ptr, ptr %1, align 8
  %18 = load i32, ptr %2, align 4
  %19 = insertvalue { ptr, i32 } poison, ptr %17, 0
  %20 = insertvalue { ptr, i32 } %19, i32 %18, 1
  resume { ptr, i32 } %20
}

; Function Attrs: mustprogress nounwind uwtable
define internal noundef zeroext i1 @_ZL10striequalsPKcS0_(ptr noundef %0, ptr noundef %1) #1 {
  %3 = alloca i1, align 1
  %4 = alloca ptr, align 8
  %5 = alloca ptr, align 8
  store ptr %0, ptr %4, align 8, !tbaa !38
  store ptr %1, ptr %5, align 8, !tbaa !38
  br label %6

6:                                                ; preds = %28, %2
  %7 = load ptr, ptr %4, align 8, !tbaa !38
  %8 = load i8, ptr %7, align 1, !tbaa !41
  %9 = icmp ne i8 %8, 0
  br i1 %9, label %10, label %14

10:                                               ; preds = %6
  %11 = load ptr, ptr %5, align 8, !tbaa !38
  %12 = load i8, ptr %11, align 1, !tbaa !41
  %13 = icmp ne i8 %12, 0
  br label %14

14:                                               ; preds = %10, %6
  %15 = phi i1 [ false, %6 ], [ %13, %10 ]
  br i1 %15, label %16, label %33

16:                                               ; preds = %14
  %17 = load ptr, ptr %4, align 8, !tbaa !38
  %18 = load i8, ptr %17, align 1, !tbaa !41
  %19 = sext i8 %18 to i32
  %20 = call i32 @tolower(i32 noundef %19) #22
  %21 = load ptr, ptr %5, align 8, !tbaa !38
  %22 = load i8, ptr %21, align 1, !tbaa !41
  %23 = sext i8 %22 to i32
  %24 = call i32 @tolower(i32 noundef %23) #22
  %25 = icmp ne i32 %20, %24
  br i1 %25, label %26, label %27

26:                                               ; preds = %16
  store i1 false, ptr %3, align 1
  br label %41

27:                                               ; preds = %16
  br label %28

28:                                               ; preds = %27
  %29 = load ptr, ptr %4, align 8, !tbaa !38
  %30 = getelementptr inbounds nuw i8, ptr %29, i32 1
  store ptr %30, ptr %4, align 8, !tbaa !38
  %31 = load ptr, ptr %5, align 8, !tbaa !38
  %32 = getelementptr inbounds nuw i8, ptr %31, i32 1
  store ptr %32, ptr %5, align 8, !tbaa !38
  br label %6, !llvm.loop !42

33:                                               ; preds = %14
  %34 = load ptr, ptr %4, align 8, !tbaa !38
  %35 = load i8, ptr %34, align 1, !tbaa !41
  %36 = sext i8 %35 to i32
  %37 = load ptr, ptr %5, align 8, !tbaa !38
  %38 = load i8, ptr %37, align 1, !tbaa !41
  %39 = sext i8 %38 to i32
  %40 = icmp eq i32 %36, %39
  store i1 %40, ptr %3, align 1
  br label %41

41:                                               ; preds = %33, %26
  %42 = load i1, ptr %3, align 1
  ret i1 %42
}

; Function Attrs: mustprogress uwtable
define i64 @ggml_backend_dev_count() #0 {
  %1 = call noundef nonnull align 8 dereferenceable(48) ptr @_ZL7get_regv()
  %2 = getelementptr inbounds nuw %struct.ggml_backend_registry, ptr %1, i32 0, i32 1
  %3 = call noundef i64 @_ZNKSt6vectorIP19ggml_backend_deviceSaIS1_EE4sizeEv(ptr noundef nonnull align 8 dereferenceable(24) %2) #6
  ret i64 %3
}

; Function Attrs: mustprogress uwtable
define ptr @ggml_backend_dev_by_name(ptr noundef %0) #0 {
  %2 = alloca ptr, align 8
  %3 = alloca ptr, align 8
  %4 = alloca i64, align 8
  %5 = alloca i32, align 4
  %6 = alloca ptr, align 8
  store ptr %0, ptr %3, align 8, !tbaa !38
  call void @llvm.lifetime.start.p0(i64 8, ptr %4) #6
  store i64 0, ptr %4, align 8, !tbaa !21
  br label %7

7:                                                ; preds = %25, %1
  %8 = load i64, ptr %4, align 8, !tbaa !21
  %9 = call i64 @ggml_backend_dev_count()
  %10 = icmp ult i64 %8, %9
  br i1 %10, label %12, label %11

11:                                               ; preds = %7
  store i32 2, ptr %5, align 4
  br label %28

12:                                               ; preds = %7
  call void @llvm.lifetime.start.p0(i64 8, ptr %6) #6
  %13 = load i64, ptr %4, align 8, !tbaa !21
  %14 = call ptr @ggml_backend_dev_get(i64 noundef %13)
  store ptr %14, ptr %6, align 8, !tbaa !30
  %15 = load ptr, ptr %6, align 8, !tbaa !30
  %16 = call ptr @ggml_backend_dev_name(ptr noundef %15)
  %17 = load ptr, ptr %3, align 8, !tbaa !38
  %18 = call noundef zeroext i1 @_ZL10striequalsPKcS0_(ptr noundef %16, ptr noundef %17)
  br i1 %18, label %19, label %21

19:                                               ; preds = %12
  %20 = load ptr, ptr %6, align 8, !tbaa !30
  store ptr %20, ptr %2, align 8
  store i32 1, ptr %5, align 4
  br label %22

21:                                               ; preds = %12
  store i32 0, ptr %5, align 4
  br label %22

22:                                               ; preds = %21, %19
  call void @llvm.lifetime.end.p0(i64 8, ptr %6) #6
  %23 = load i32, ptr %5, align 4
  switch i32 %23, label %28 [
    i32 0, label %24
  ]

24:                                               ; preds = %22
  br label %25

25:                                               ; preds = %24
  %26 = load i64, ptr %4, align 8, !tbaa !21
  %27 = add i64 %26, 1
  store i64 %27, ptr %4, align 8, !tbaa !21
  br label %7, !llvm.loop !49

28:                                               ; preds = %22, %11
  call void @llvm.lifetime.end.p0(i64 8, ptr %4) #6
  %29 = load i32, ptr %5, align 4
  switch i32 %29, label %33 [
    i32 2, label %30
    i32 1, label %31
  ]

30:                                               ; preds = %28
  store ptr null, ptr %2, align 8
  br label %31

31:                                               ; preds = %30, %28
  %32 = load ptr, ptr %2, align 8
  ret ptr %32

33:                                               ; preds = %28
  unreachable
}