; Function Attrs: mustprogress uwtable
define noundef ptr @ggml_backend_dev_by_name(ptr noundef readonly captures(none) %0) local_unnamed_addr #0 personality ptr @__gxx_personality_v0 {
  br label %2

2:                                                ; preds = %_ZL10striequalsPKcS0_.exit.thread, %1
  %.010 = phi i64 [ 0, %1 ], [ %35, %_ZL10striequalsPKcS0_.exit.thread ]
  %3 = load atomic i8, ptr @_ZGVZL7get_regvE3reg acquire, align 8
  %4 = icmp eq i8 %3, 0
  br i1 %4, label %5, label %ggml_backend_dev_count.exit, !prof !3

5:                                                ; preds = %2
  %6 = tail call i32 @__cxa_guard_acquire(ptr nonnull @_ZGVZL7get_regvE3reg) #26
  %.not.i.i = icmp eq i32 %6, 0
  br i1 %.not.i.i, label %ggml_backend_dev_count.exit, label %7

7:                                                ; preds = %5
  invoke void @_ZN21ggml_backend_registryC2Ev(ptr noundef nonnull align 8 dereferenceable(48) @_ZZL7get_regvE3reg)
          to label %8 unwind label %10

8:                                                ; preds = %7
  %9 = tail call i32 @__cxa_atexit(ptr nonnull @_ZN21ggml_backend_registryD2Ev, ptr nonnull @_ZZL7get_regvE3reg, ptr nonnull @__dso_handle) #26
  tail call void @__cxa_guard_release(ptr nonnull @_ZGVZL7get_regvE3reg) #26
  br label %ggml_backend_dev_count.exit

10:                                               ; preds = %7
  %11 = landingpad { ptr, i32 }
          cleanup
  tail call void @__cxa_guard_abort(ptr nonnull @_ZGVZL7get_regvE3reg) #26
  resume { ptr, i32 } %11

ggml_backend_dev_count.exit:                      ; preds = %2, %5, %8
  %12 = load ptr, ptr getelementptr inbounds nuw (i8, ptr @_ZZL7get_regvE3reg, i64 32), align 8, !tbaa !22
  %13 = load ptr, ptr getelementptr inbounds nuw (i8, ptr @_ZZL7get_regvE3reg, i64 24), align 8, !tbaa !29
  %14 = ptrtoint ptr %12 to i64
  %15 = ptrtoint ptr %13 to i64
  %16 = sub i64 %14, %15
  %17 = ashr exact i64 %16, 3
  %.not = icmp ult i64 %.010, %17
  br i1 %.not, label %18, label %36

18:                                               ; preds = %ggml_backend_dev_count.exit
  %19 = tail call ptr @ggml_backend_dev_get(i64 noundef %.010)
  %20 = tail call ptr @ggml_backend_dev_name(ptr noundef %19)
  %21 = load i8, ptr %20, align 1, !tbaa !33
  %.not17.i = icmp eq i8 %21, 0
  br i1 %.not17.i, label %_ZL10striequalsPKcS0_.exit, label %.lr.ph.i

.lr.ph.i:                                         ; preds = %18, %29
  %22 = phi i8 [ %32, %29 ], [ %21, %18 ]
  %.019.i = phi ptr [ %31, %29 ], [ %0, %18 ]
  %.0918.i = phi ptr [ %30, %29 ], [ %20, %18 ]
  %23 = load i8, ptr %.019.i, align 1, !tbaa !33
  %.not13.i = icmp eq i8 %23, 0
  br i1 %.not13.i, label %_ZL10striequalsPKcS0_.exit, label %24

24:                                               ; preds = %.lr.ph.i
  %25 = sext i8 %22 to i32
  %26 = tail call i32 @tolower(i32 noundef %25) #30
  %27 = sext i8 %23 to i32
  %28 = tail call i32 @tolower(i32 noundef %27) #30
  %.not14.i = icmp eq i32 %26, %28
  br i1 %.not14.i, label %29, label %_ZL10striequalsPKcS0_.exit.thread

29:                                               ; preds = %24
  %30 = getelementptr inbounds nuw i8, ptr %.0918.i, i64 1
  %31 = getelementptr inbounds nuw i8, ptr %.019.i, i64 1
  %32 = load i8, ptr %30, align 1, !tbaa !33
  %.not.i = icmp eq i8 %32, 0
  br i1 %.not.i, label %_ZL10striequalsPKcS0_.exit, label %.lr.ph.i, !llvm.loop !34

_ZL10striequalsPKcS0_.exit:                       ; preds = %.lr.ph.i, %29, %18
  %.0.lcssa.i = phi ptr [ %0, %18 ], [ %.019.i, %.lr.ph.i ], [ %31, %29 ]
  %.lcssa.i = phi i8 [ 0, %18 ], [ %22, %.lr.ph.i ], [ 0, %29 ]
  %33 = load i8, ptr %.0.lcssa.i, align 1, !tbaa !33
  %34 = icmp eq i8 %.lcssa.i, %33
  br i1 %34, label %36, label %_ZL10striequalsPKcS0_.exit.thread

_ZL10striequalsPKcS0_.exit.thread:                ; preds = %24, %_ZL10striequalsPKcS0_.exit
  %35 = add i64 %.010, 1
  br label %2, !llvm.loop !36

36:                                               ; preds = %_ZL10striequalsPKcS0_.exit, %ggml_backend_dev_count.exit
  %spec.select = phi ptr [ null, %ggml_backend_dev_count.exit ], [ %19, %_ZL10striequalsPKcS0_.exit ]
  ret ptr %spec.select
}